; Function Attrs: mustprogress nofree norecurse nosync nounwind willreturn memory(argmem: write) uwtable
define dso_local void @dbuf_init2(ptr nocapture noundef writeonly %0, ptr noundef %1, ptr noundef %2) local_unnamed_addr #5 {
  tail call void @llvm.memset.p0.i64(ptr noundef nonnull align 8 dereferenceable(48) %0, i8 0, i64 32, i1 false)
  %.not = icmp eq ptr %2, null
  %spec.store.select = select i1 %.not, ptr @dbuf_default_realloc, ptr %2
  %4 = getelementptr inbounds i8, ptr %0, i64 40
  store ptr %1, ptr %4, align 8
  %5 = getelementptr inbounds i8, ptr %0, i64 32
  store ptr %spec.store.select, ptr %5, align 8
  ret void
}